Certificate:
    Data:
        Version: 3 (0x2)
        Serial Number: 1 (0x1)
        Signature Algorithm: sha1WithRSAEncryption
        Issuer: C=NL, ST=Noord-Holland, L=Amsterdam, O=SSAlleyWare, OU=test, CN=SSAlleyWare Root CA
        Validity
            Not Before: Aug 18 00:21:48 2011 GMT
            Not After : Jan  3 00:21:48 2039 GMT
        Subject: C=NL, ST=Noord-Holland, O=SSAlleyWare, OU=test, CN=SSAlleyWare Intermediate CA
        Subject Public Key Info:
            Public Key Algorithm: rsaEncryption
            RSA Public Key: (4096 bit)
                Modulus (4096 bit):
                    00:f3:1c:92:23:22:46:c6:b2:5d:cc:7f:43:d8:46:
                    f8:76:76:14:bc:14:2a:58:ef:ce:53:5e:2e:14:29:
                    9d:e9:a7:39:69:82:41:d6:aa:a4:11:6b:ef:38:38:
                    42:14:59:0c:97:e7:65:86:33:57:ab:2d:78:dc:34:
                    04:9f:e3:69:36:a0:e3:01:1b:47:b9:21:70:3c:f7:
                    69:e0:ba:d9:54:59:d2:90:6b:8e:5c:4f:24:9c:a7:
                    18:c3:eb:de:6a:bd:0d:d2:77:25:ee:62:f1:6d:27:
                    ba:74:af:ac:84:de:23:70:fc:bb:a2:78:d9:c7:12:
                    3b:c4:1a:0f:d2:5c:ba:27:52:65:d7:f2:c8:78:45:
                    b3:5d:bf:79:aa:75:77:25:d0:ff:fa:bb:5e:27:e8:
                    10:a1:de:dc:d1:bd:b0:87:cb:e9:53:a5:1e:1a:b8:
                    d8:ef:23:c1:57:b0:51:c2:1b:88:61:43:fe:dc:ca:
                    92:91:44:85:c0:33:61:d9:2c:c7:02:e4:29:f9:ce:
                    a2:57:c5:f4:6c:ce:21:9b:1e:72:43:81:de:5d:f5:
                    13:cc:96:79:2c:d3:6d:0a:6c:13:ae:8c:1d:fe:8a:
                    92:37:1b:76:d6:06:10:76:e5:39:af:54:8c:5f:43:
                    b0:31:40:b9:27:55:9b:36:34:e2:6a:a0:cd:d9:68:
                    c4:cd:4f:0e:03:bc:c9:ac:77:c3:b3:a0:20:d1:41:
                    fc:26:9d:64:da:d2:21:13:e4:b1:f1:54:c5:69:60:
                    89:6b:d8:3a:a8:38:78:01:1d:2a:c5:77:1f:87:52:
                    cc:1b:08:47:0b:47:5c:04:6c:45:a5:cd:46:13:6c:
                    3c:f8:5b:09:11:52:91:7e:82:65:49:f2:49:08:73:
                    91:29:50:9d:85:10:82:3d:48:c8:d8:7d:ad:01:38:
                    27:dd:79:b6:55:ff:80:9f:b8:31:22:b4:28:e9:29:
                    1a:60:06:1c:0c:18:71:86:56:ce:86:21:78:fd:4e:
                    93:69:81:59:d6:61:96:bf:f0:b3:c7:58:17:54:cd:
                    97:cc:87:b0:c7:60:2a:36:7d:cc:3a:89:01:fe:0f:
                    a4:17:e5:44:01:9f:64:01:19:45:25:ea:3f:aa:cb:
                    cc:77:c4:61:57:0a:3a:d7:b9:00:d4:2b:4c:47:89:
                    8f:02:32:f5:1d:97:6e:f6:5f:7a:20:96:65:41:45:
                    66:cc:6b:0a:29:fc:cc:20:d5:cc:b0:45:fb:77:f8:
                    a8:86:60:e8:e8:51:b6:ee:0c:5e:e6:c4:bc:e9:82:
                    01:6e:ff:27:c8:0b:43:29:20:82:1c:48:ec:ee:b9:
                    b5:5d:9a:ce:e0:14:3a:a0:73:da:94:d4:2f:2e:bd:
                    27:0a:25
                Exponent: 65537 (0x10001)
        X509v3 extensions:
            X509v3 Subject Key Identifier: 
                76:2D:4D:3A:71:80:99:17:F7:0A:04:4F:29:0F:89:68:70:18:90:34
            X509v3 Authority Key Identifier: 
                keyid:15:09:36:AF:45:CA:E3:CA:AD:B7:01:F7:1B:22:76:92:2C:0C:EE:20
                DirName:/C=NL/ST=Noord-Holland/L=Amsterdam/O=SSAlleyWare/OU=test/CN=SSAlleyWare Root CA
                serial:D2:E9:C8:36:47:14:C7:42

            X509v3 Basic Constraints: 
                CA:TRUE
    Signature Algorithm: sha1WithRSAEncryption
        94:6e:b5:db:18:8b:49:18:9c:98:22:43:ac:f4:b4:07:43:ed:
        fa:c3:09:bf:29:53:c7:5b:93:21:f5:32:cb:6a:f4:54:0c:ff:
        10:a4:1a:68:b7:19:82:f1:2f:4c:d8:1e:5b:b5:a0:3b:b1:33:
        21:2d:a2:54:17:5d:d9:62:f5:33:f1:bf:f6:8c:d7:46:e0:ec:
        03:b4:01:3f:a5:6b:97:42:d9:70:ca:05:1e:22:1b:e8:7b:9b:
        00:d9:d0:c7:16:10:6b:74:a9:18:4b:e3:09:66:1c:94:a4:e1:
        10:37:c0:a5:c5:f1:da:00:69:4c:e2:43:16:82:f6:70:92:99:
        6e:f6:30:5d:54:03:17:7a:8a:a2:72:7b:ee:72:45:3c:5d:bd:
        df:fc:f1:3b:80:46:07:1a:c3:83:2c:8e:f3:ea:aa:58:58:58:
        f2:47:cd:e4:a2:86:03:00:4c:63:7c:7f:2b:93:35:23:c4:03:
        d3:fe:8f:4e:25:79:9c:d6:f6:2d:8c:02:40:60:8a:5f:88:c2:
        35:e7:08:b3:bc:a4:70:34:ba:c6:cb:4d:34:62:a9:b9:96:2d:
        7c:92:bd:b8:50:5f:8a:a8:28:79:2d:f0:df:e0:92:04:07:c9:
        85:6c:ec:03:38:a0:b2:f0:dd:7d:88:bf:95:ef:40:2f:7d:ef:
        85:07:60:e9:8b:e5:65:0c:dd:df:bd:7c:dc:2a:2e:31:80:c9:
        47:07:94:f3:b7:7b:01:4f:42:60:97:a2:4e:5f:91:65:9c:27:
        71:8b:70:21:49:07:65:ea:73:3d:cc:d9:69:23:df:ef:8f:a8:
        33:6f:2a:79:73:f8:a6:95:ac:d8:69:46:df:f6:c8:8f:01:bd:
        ea:8b:96:25:d6:3f:d8:1d:8a:e0:87:d4:8d:c7:bb:01:e9:16:
        91:b0:37:e4:0f:4d:e0:dc:c8:e7:25:65:b8:73:86:0d:99:8f:
        1c:c1:c6:b6:17:db:c7:c0:0e:0f:db:20:12:a7:95:be:53:ec:
        f5:5d:6c:64:55:8d:41:da:1a:c4:ab:e8:28:b9:b7:25:5b:e7:
        45:14:38:0a:f4:d2:f1:bb:cb:c6:a4:eb:ab:e9:99:3f:4c:8e:
        bd:8a:d4:df:e9:bb:c2:a7:a1:d9:37:31:ae:14:16:0f:f1:5d:
        68:8f:34:dd:71:f1:03:8e:b2:59:05:86:c9:86:48:b8:33:4a:
        78:d2:df:d7:cb:04:ae:bf:8e:df:5e:9a:2e:15:c6:d2:a8:06:
        9f:33:ac:45:a7:bc:98:06:d6:92:7f:c9:e8:40:ad:71:76:56:
        1e:07:f5:56:49:64:6c:a1:06:de:8a:a1:41:57:82:a4:81:e4:
        86:2c:67:a8:8e:4f:7b:e0
-----BEGIN CERTIFICATE-----
MIIGSjCCBDKgAwIBAgIBATANBgkqhkiG9w0BAQUFADB8MQswCQYDVQQGEwJOTDEW
MBQGA1UECBMNTm9vcmQtSG9sbGFuZDESMBAGA1UEBxMJQW1zdGVyZGFtMRQwEgYD
VQQKEwtTU0FsbGV5V2FyZTENMAsGA1UECxMEdGVzdDEcMBoGA1UEAxMTU1NBbGxl
eVdhcmUgUm9vdCBDQTAeFw0xMTA4MTgwMDIxNDhaFw0zOTAxMDMwMDIxNDhaMHAx
CzAJBgNVBAYTAk5MMRYwFAYDVQQIEw1Ob29yZC1Ib2xsYW5kMRQwEgYDVQQKEwtT
U0FsbGV5V2FyZTENMAsGA1UECxMEdGVzdDEkMCIGA1UEAxMbU1NBbGxleVdhcmUg
SW50ZXJtZWRpYXRlIENBMIICIjANBgkqhkiG9w0BAQEFAAOCAg8AMIICCgKCAgEA
8xySIyJGxrJdzH9D2Eb4dnYUvBQqWO/OU14uFCmd6ac5aYJB1qqkEWvvODhCFFkM
l+dlhjNXqy143DQEn+NpNqDjARtHuSFwPPdp4LrZVFnSkGuOXE8knKcYw+vear0N
0ncl7mLxbSe6dK+shN4jcPy7onjZxxI7xBoP0ly6J1Jl1/LIeEWzXb95qnV3JdD/
+rteJ+gQod7c0b2wh8vpU6UeGrjY7yPBV7BRwhuIYUP+3MqSkUSFwDNh2SzHAuQp
+c6iV8X0bM4hmx5yQ4HeXfUTzJZ5LNNtCmwTrowd/oqSNxt21gYQduU5r1SMX0Ow
MUC5J1WbNjTiaqDN2WjEzU8OA7zJrHfDs6Ag0UH8Jp1k2tIhE+Sx8VTFaWCJa9g6
qDh4AR0qxXcfh1LMGwhHC0dcBGxFpc1GE2w8+FsJEVKRfoJlSfJJCHORKVCdhRCC
PUjI2H2tATgn3Xm2Vf+An7gxIrQo6SkaYAYcDBhxhlbOhiF4/U6TaYFZ1mGWv/Cz
x1gXVM2XzIewx2AqNn3MOokB/g+kF+VEAZ9kARlFJeo/qsvMd8RhVwo617kA1CtM
R4mPAjL1HZdu9l96IJZlQUVmzGsKKfzMINXMsEX7d/iohmDo6FG27gxe5sS86YIB
bv8nyAtDKSCCHEjs7rm1XZrO4BQ6oHPalNQvLr0nCiUCAwEAAaOB4jCB3zAdBgNV
HQ4EFgQUdi1NOnGAmRf3CgRPKQ+JaHAYkDQwga8GA1UdIwSBpzCBpIAUFQk2r0XK
48qttwH3GyJ2kiwM7iChgYCkfjB8MQswCQYDVQQGEwJOTDEWMBQGA1UECBMNTm9v
cmQtSG9sbGFuZDESMBAGA1UEBxMJQW1zdGVyZGFtMRQwEgYDVQQKEwtTU0FsbGV5
V2FyZTENMAsGA1UECxMEdGVzdDEcMBoGA1UEAxMTU1NBbGxleVdhcmUgUm9vdCBD
QYIJANLpyDZHFMdCMAwGA1UdEwQFMAMBAf8wDQYJKoZIhvcNAQEFBQADggIBAJRu
tdsYi0kYnJgiQ6z0tAdD7frDCb8pU8dbkyH1Mstq9FQM/xCkGmi3GYLxL0zYHlu1
oDuxMyEtolQXXdli9TPxv/aM10bg7AO0AT+la5dC2XDKBR4iG+h7mwDZ0McWEGt0
qRhL4wlmHJSk4RA3wKXF8doAaUziQxaC9nCSmW72MF1UAxd6iqJye+5yRTxdvd/8
8TuARgcaw4MsjvPqqlhYWPJHzeSihgMATGN8fyuTNSPEA9P+j04leZzW9i2MAkBg
il+IwjXnCLO8pHA0usbLTTRiqbmWLXySvbhQX4qoKHkt8N/gkgQHyYVs7AM4oLLw
3X2Iv5XvQC9974UHYOmL5WUM3d+9fNwqLjGAyUcHlPO3ewFPQmCXok5fkWWcJ3GL
cCFJB2Xqcz3M2Wkj3++PqDNvKnlz+KaVrNhpRt/2yI8BveqLliXWP9gdiuCH1I3H
uwHpFpGwN+QPTeDcyOclZbhzhg2ZjxzBxrYX28fADg/bIBKnlb5T7PVdbGRVjUHa
GsSr6Ci5tyVb50UUOAr00vG7y8ak66vpmT9Mjr2K1N/pu8Knodk3Ma4UFg/xXWiP
NN1x8QOOslkFhsmGSLgzSnjS39fLBK6/jt9emi4VxtKoBp8zrEWnvJgG1pJ/yehA
rXF2Vh4H9VZJZGyhBt6KoUFXgqSB5IYsZ6iOT3vg
-----END CERTIFICATE-----
