Certificate:
    Data:
        Version: 3 (0x2)
        Serial Number: 1 (0x1)
        Signature Algorithm: sha1WithRSAEncryption
        Issuer: C=NL, ST=Noord-Holland, L=Amsterdam, O=SSAlleyWare, OU=test, CN=SSAlleyWare Root CA
        Validity
            Not Before: Aug 17 23:37:11 2011 GMT
            Not After : Jan  2 23:37:11 2039 GMT
        Subject: C=NL, ST=Noord-Holland, O=SSAlleyWare, OU=test, CN=SSAlleyWare Intermediate CA
        Subject Public Key Info:
            Public Key Algorithm: rsaEncryption
            RSA Public Key: (4096 bit)
                Modulus (4096 bit):
                    00:cb:74:b7:16:82:14:c9:75:fb:79:e6:d5:05:99:
                    35:fe:d7:09:23:1e:50:f1:9b:e0:f7:48:ca:5d:92:
                    6f:db:a1:60:0f:8d:ba:d4:67:af:89:4c:c4:a6:ae:
                    8a:05:b2:40:3a:13:1a:61:04:9d:b0:74:33:96:1b:
                    fb:fa:7a:98:a6:81:7f:4d:ec:df:53:e4:98:3c:00:
                    39:18:45:8c:3d:3c:1f:b7:5a:cc:56:42:56:21:c0:
                    9e:a2:62:50:9d:c2:23:f7:cf:45:73:19:dc:2d:cb:
                    d5:d9:d9:fa:5d:03:b9:91:ae:5a:da:22:da:59:29:
                    56:e2:68:a2:81:f5:87:58:0c:1d:c4:75:df:a5:8d:
                    e9:51:d1:c9:c0:5c:b2:d0:e8:9d:80:93:02:13:e8:
                    d1:d4:8e:18:00:99:09:23:11:7c:b8:cb:83:1f:22:
                    ee:38:4c:da:0f:10:37:20:a2:25:04:19:62:d2:76:
                    ec:7a:26:29:df:84:e0:23:55:85:5f:1a:e4:39:b6:
                    9b:b2:fb:1d:f5:99:99:09:c2:e1:e5:11:b5:d9:7a:
                    de:52:2a:c0:10:17:a5:79:38:c8:dc:08:13:23:1e:
                    7c:0e:9b:7f:8f:74:f7:42:9b:11:c3:4d:9b:52:33:
                    ec:90:51:d8:1a:a2:5a:bd:20:7d:36:64:5c:b8:c8:
                    cf:07:e0:b4:de:f1:8c:24:b9:37:60:a5:09:d9:8c:
                    35:0f:83:8e:6b:c6:ea:fc:4a:89:62:62:11:9e:12:
                    d6:47:2c:be:b7:f9:89:bb:d7:f3:72:4b:ef:dc:97:
                    f6:c3:6b:b1:1f:e3:2a:24:9b:73:7f:76:88:93:76:
                    d3:42:09:65:92:4d:c7:99:49:e7:5a:09:1b:38:67:
                    36:3f:ac:b3:0e:29:ab:2c:21:7f:73:21:34:1f:c6:
                    4b:3a:6d:8c:47:d6:68:e9:a2:90:be:cd:a6:57:c8:
                    eb:02:23:bb:fb:5e:49:ae:2e:b1:42:fa:8c:bc:93:
                    5e:02:21:b4:d8:fa:79:81:d3:ad:59:70:e4:43:a4:
                    0b:d7:f4:45:53:33:4b:a9:fe:fd:e3:75:a2:95:47:
                    0d:94:9f:7f:bc:b1:c4:b1:ad:b6:16:e8:0c:ab:6e:
                    f9:eb:03:26:91:ee:56:ba:05:22:e2:68:b3:a8:52:
                    3a:80:aa:ea:2c:a8:c3:c5:99:4f:c3:ce:53:35:5d:
                    67:47:58:e0:4d:7c:0f:1f:c8:d6:64:2e:3d:8b:15:
                    95:b8:46:8b:2e:31:95:ee:20:e7:37:a5:0a:44:a7:
                    4e:a4:13:ce:e0:3a:1e:55:12:1e:15:74:c8:d5:e1:
                    1b:5e:28:a0:b8:48:a3:f8:67:ad:88:94:f8:f2:30:
                    49:6e:57
                Exponent: 65537 (0x10001)
        X509v3 extensions:
            X509v3 Subject Key Identifier: 
                2B:98:11:6B:52:66:E3:D4:40:81:85:A7:1F:43:72:40:AC:FA:65:D6
            X509v3 Authority Key Identifier: 
                keyid:77:DF:82:8E:B1:50:64:3C:1B:8F:71:C9:C0:38:8B:D2:F4:DE:E6:42
                DirName:/C=NL/ST=Noord-Holland/L=Amsterdam/O=SSAlleyWare/OU=test/CN=SSAlleyWare Root CA
                serial:89:65:E4:69:BC:74:C1:4D

            X509v3 Basic Constraints: 
                CA:TRUE
    Signature Algorithm: sha1WithRSAEncryption
        49:9a:d6:c8:3a:c0:6a:22:c8:e4:2f:00:be:4b:4e:c9:41:69:
        11:6a:93:eb:79:3c:4e:a5:c3:89:01:1b:d8:ce:14:9b:d6:4d:
        c8:cb:8f:8c:d0:01:2b:1e:52:f3:d9:35:39:80:8d:04:e0:fb:
        41:72:e6:65:70:65:33:b7:9d:6e:68:07:72:7f:e0:72:90:3a:
        88:2d:bf:3b:7e:af:ea:61:98:60:42:30:4b:05:8c:13:cf:99:
        23:99:5f:63:07:f8:7c:ae:9c:5b:16:1b:89:93:33:1d:ac:2d:
        99:94:6d:46:b1:1b:10:40:51:be:2c:67:09:05:7a:60:a0:53:
        d9:4b:55:cb:db:62:bb:0f:99:03:6f:4d:7b:4f:8b:03:5c:25:
        18:43:a9:bd:55:50:ad:26:06:36:b5:3d:49:f2:e8:87:83:53:
        97:21:2c:6e:d9:df:e8:54:d3:e5:41:40:71:d0:2f:5b:71:7b:
        f1:70:92:95:b7:cc:b0:33:a5:d2:70:02:a6:20:89:29:6e:11:
        80:53:d9:1c:b1:82:9a:f0:eb:05:47:d5:6e:b5:ca:68:20:5b:
        3c:46:4d:5d:0c:f3:1f:cd:81:a6:32:32:19:4e:d4:39:7f:86:
        bb:19:6e:a6:97:a8:a3:4d:f7:8e:24:7a:a7:69:86:c0:e5:ad:
        f4:ed:3b:8d:6b:cb:9e:9e:27:bb:30:87:71:10:95:f8:17:ef:
        cf:71:96:08:54:a5:f2:4e:23:cd:84:c0:e1:72:33:ed:a3:e6:
        c0:1b:3d:85:3f:7a:75:c0:0b:75:2d:7a:31:26:11:22:6f:31:
        60:47:56:39:a0:69:ff:63:a3:d9:85:96:77:c9:34:33:b7:9e:
        55:93:3b:29:b6:64:a7:9e:2a:c9:e7:26:93:45:35:fb:c9:2e:
        cc:38:f4:d6:d9:45:c5:5b:ec:f9:4b:27:8e:ee:22:a5:29:41:
        06:d5:56:c9:c6:1f:cb:f3:02:94:28:71:14:0e:25:06:c8:1b:
        1c:cd:5d:08:0d:76:8e:23:f4:ee:76:e2:28:d7:0a:26:46:cf:
        db:b8:03:be:98:b4:55:5e:a7:36:26:53:9e:69:68:78:30:59:
        85:ce:fc:cc:72:be:42:09:37:7d:3e:83:3b:c4:3a:49:cd:dd:
        72:f9:5a:86:dc:83:f7:ec:d3:a8:51:e6:50:53:7f:8f:47:25:
        1e:18:f0:48:3c:3f:cb:d4:25:e3:63:9e:12:39:99:b5:23:5a:
        c8:b2:17:08:b3:e0:34:c5:a6:95:eb:00:c3:ef:76:85:81:7d:
        a6:6b:9a:9f:b6:43:de:04:bc:b3:26:6a:20:cb:3e:4f:88:65:
        b7:bb:91:d6:52:03:2a:aa
-----BEGIN CERTIFICATE-----
MIIGSjCCBDKgAwIBAgIBATANBgkqhkiG9w0BAQUFADB8MQswCQYDVQQGEwJOTDEW
MBQGA1UECBMNTm9vcmQtSG9sbGFuZDESMBAGA1UEBxMJQW1zdGVyZGFtMRQwEgYD
VQQKEwtTU0FsbGV5V2FyZTENMAsGA1UECxMEdGVzdDEcMBoGA1UEAxMTU1NBbGxl
eVdhcmUgUm9vdCBDQTAeFw0xMTA4MTcyMzM3MTFaFw0zOTAxMDIyMzM3MTFaMHAx
CzAJBgNVBAYTAk5MMRYwFAYDVQQIEw1Ob29yZC1Ib2xsYW5kMRQwEgYDVQQKEwtT
U0FsbGV5V2FyZTENMAsGA1UECxMEdGVzdDEkMCIGA1UEAxMbU1NBbGxleVdhcmUg
SW50ZXJtZWRpYXRlIENBMIICIjANBgkqhkiG9w0BAQEFAAOCAg8AMIICCgKCAgEA
y3S3FoIUyXX7eebVBZk1/tcJIx5Q8Zvg90jKXZJv26FgD4261GeviUzEpq6KBbJA
OhMaYQSdsHQzlhv7+nqYpoF/TezfU+SYPAA5GEWMPTwft1rMVkJWIcCeomJQncIj
989FcxncLcvV2dn6XQO5ka5a2iLaWSlW4miigfWHWAwdxHXfpY3pUdHJwFyy0Oid
gJMCE+jR1I4YAJkJIxF8uMuDHyLuOEzaDxA3IKIlBBli0nbseiYp34TgI1WFXxrk
Obabsvsd9ZmZCcLh5RG12XreUirAEBeleTjI3AgTIx58Dpt/j3T3QpsRw02bUjPs
kFHYGqJavSB9NmRcuMjPB+C03vGMJLk3YKUJ2Yw1D4OOa8bq/EqJYmIRnhLWRyy+
t/mJu9fzckvv3Jf2w2uxH+MqJJtzf3aIk3bTQgllkk3HmUnnWgkbOGc2P6yzDimr
LCF/cyE0H8ZLOm2MR9Zo6aKQvs2mV8jrAiO7+15Jri6xQvqMvJNeAiG02Pp5gdOt
WXDkQ6QL1/RFUzNLqf7943WilUcNlJ9/vLHEsa22FugMq2756wMmke5WugUi4miz
qFI6gKrqLKjDxZlPw85TNV1nR1jgTXwPH8jWZC49ixWVuEaLLjGV7iDnN6UKRKdO
pBPO4DoeVRIeFXTI1eEbXiiguEij+GetiJT48jBJblcCAwEAAaOB4jCB3zAdBgNV
HQ4EFgQUK5gRa1Jm49RAgYWnH0NyQKz6ZdYwga8GA1UdIwSBpzCBpIAUd9+CjrFQ
ZDwbj3HJwDiL0vTe5kKhgYCkfjB8MQswCQYDVQQGEwJOTDEWMBQGA1UECBMNTm9v
cmQtSG9sbGFuZDESMBAGA1UEBxMJQW1zdGVyZGFtMRQwEgYDVQQKEwtTU0FsbGV5
V2FyZTENMAsGA1UECxMEdGVzdDEcMBoGA1UEAxMTU1NBbGxleVdhcmUgUm9vdCBD
QYIJAIll5Gm8dMFNMAwGA1UdEwQFMAMBAf8wDQYJKoZIhvcNAQEFBQADggIBAEma
1sg6wGoiyOQvAL5LTslBaRFqk+t5PE6lw4kBG9jOFJvWTcjLj4zQASseUvPZNTmA
jQTg+0Fy5mVwZTO3nW5oB3J/4HKQOogtvzt+r+phmGBCMEsFjBPPmSOZX2MH+Hyu
nFsWG4mTMx2sLZmUbUaxGxBAUb4sZwkFemCgU9lLVcvbYrsPmQNvTXtPiwNcJRhD
qb1VUK0mBja1PUny6IeDU5chLG7Z3+hU0+VBQHHQL1txe/FwkpW3zLAzpdJwAqYg
iSluEYBT2Ryxgprw6wVH1W61ymggWzxGTV0M8x/NgaYyMhlO1Dl/hrsZbqaXqKNN
944keqdphsDlrfTtO41ry56eJ7swh3EQlfgX789xlghUpfJOI82EwOFyM+2j5sAb
PYU/enXAC3UtejEmESJvMWBHVjmgaf9jo9mFlnfJNDO3nlWTOym2ZKeeKsnnJpNF
NfvJLsw49NbZRcVb7PlLJ47uIqUpQQbVVsnGH8vzApQocRQOJQbIGxzNXQgNdo4j
9O524ijXCiZGz9u4A76YtFVepzYmU55paHgwWYXO/MxyvkIJN30+gzvEOknN3XL5
Wobcg/fs06hR5lBTf49HJR4Y8Eg8P8vUJeNjnhI5mbUjWsiyFwiz4DTFppXrAMPv
doWBfaZrmp+2Q94EvLMmaiDLPk+IZbe7kdZSAyqq
-----END CERTIFICATE-----
