Certificate:
    Data:
        Version: 3 (0x2)
        Serial Number: 2 (0x2)
        Signature Algorithm: sha1WithRSAEncryption
        Issuer: C=NL, ST=Noord-Holland, L=Amsterdam, O=SSAlleyWare, OU=test, CN=SSAlleyWare Root CA
        Validity
            Not Before: Aug 17 23:58:37 2011 GMT
            Not After : Jan  2 23:58:38 2039 GMT
        Subject: C=NL, ST=Noord-Holland, O=SSAlleyWare, OU=test, CN=SSAlleyWare Other Intermediate CA
        Subject Public Key Info:
            Public Key Algorithm: rsaEncryption
            RSA Public Key: (4096 bit)
                Modulus (4096 bit):
                    00:d4:e5:87:8d:3b:91:8e:12:50:bb:94:37:8f:59:
                    24:c3:fa:df:aa:a1:02:d2:38:4e:60:ac:5a:b8:d3:
                    53:13:74:41:32:24:e7:a4:fe:81:f2:06:d4:b3:a0:
                    73:2a:21:db:fe:da:aa:28:67:e7:61:1f:a9:da:f7:
                    7b:e6:f8:68:cb:ad:a1:3b:e1:84:a6:2e:09:4c:07:
                    01:53:be:70:50:02:28:27:96:ac:88:d8:61:5e:ab:
                    bf:c4:3d:e5:d8:15:f3:d5:bc:aa:bc:43:87:c3:1e:
                    d5:69:e2:57:39:6d:cc:31:4a:35:81:d8:25:29:d3:
                    28:c4:1f:b8:ca:93:b9:d7:f8:19:6c:30:2a:f1:d4:
                    5a:13:37:98:ca:20:ce:cf:7b:01:a2:4d:33:ee:14:
                    da:11:41:b5:26:53:fb:b5:01:ea:81:fd:e3:30:72:
                    24:d3:24:f6:b2:c2:e3:a1:6d:70:40:8d:a6:f6:90:
                    c9:9e:9f:82:de:53:c8:bb:ac:91:49:4a:99:d5:74:
                    e3:a1:c5:79:54:bf:3d:0b:01:de:53:84:5c:b3:92:
                    a3:86:ee:97:45:2e:20:1a:b3:6d:a3:32:ac:d1:3e:
                    75:4f:9e:e6:d8:cb:79:cd:3d:94:93:37:ac:a7:f5:
                    e0:f9:cd:71:ef:69:1c:e3:da:13:00:d3:12:af:16:
                    c3:0e:9c:aa:26:27:e1:2b:24:26:d4:e1:13:24:c4:
                    67:1c:97:f3:ce:69:9f:d9:69:a9:63:45:9b:3d:60:
                    40:66:3d:7b:a9:ce:15:1c:6a:53:21:9e:2d:b9:01:
                    51:6a:a6:a8:79:d5:f2:4f:4b:b1:e6:da:c7:fd:d4:
                    c5:f3:16:c4:ac:5c:1c:45:43:c4:14:2a:4a:2e:a8:
                    1b:6b:06:f1:f0:46:7c:8c:ee:e0:86:46:fc:87:d9:
                    53:56:70:d1:d8:e3:96:1c:27:0e:2c:dd:94:5b:77:
                    2e:b3:3c:17:51:8b:cd:a1:61:18:46:c4:ca:64:8c:
                    f0:c8:39:9e:db:c0:2e:2f:6c:de:49:b3:87:11:16:
                    65:f8:64:bb:c8:98:ee:da:b4:3c:cc:e6:79:58:7b:
                    c7:8f:82:11:07:c0:6b:c7:bf:3a:45:05:5a:c2:51:
                    10:fd:bf:54:f4:c8:55:53:ae:8a:0e:73:a3:cc:b7:
                    e2:1d:d2:e0:47:cc:1f:54:3f:c6:b9:1c:ef:38:3f:
                    2a:bf:82:e5:dd:ad:f7:45:2c:9c:cf:56:ee:c9:9e:
                    fc:74:54:c8:53:f7:3a:84:6c:1d:57:88:a4:38:29:
                    5f:72:75:d5:7d:a2:5b:78:9a:0c:56:9a:37:f7:ab:
                    c3:1e:f5:9b:69:66:ec:11:ee:e8:d0:ae:f4:e9:1e:
                    e4:e3:83
                Exponent: 65537 (0x10001)
        X509v3 extensions:
            X509v3 Subject Key Identifier: 
                C9:A6:81:E9:6D:32:4A:CD:BB:89:DB:F5:75:6B:6C:20:7A:F8:8A:6D
            X509v3 Authority Key Identifier: 
                keyid:77:DF:82:8E:B1:50:64:3C:1B:8F:71:C9:C0:38:8B:D2:F4:DE:E6:42
                DirName:/C=NL/ST=Noord-Holland/L=Amsterdam/O=SSAlleyWare/OU=test/CN=SSAlleyWare Root CA
                serial:89:65:E4:69:BC:74:C1:4D

            X509v3 Basic Constraints: 
                CA:TRUE
    Signature Algorithm: sha1WithRSAEncryption
        0e:e2:11:fe:06:f4:5f:84:fb:44:20:b1:77:ed:eb:4f:e3:76:
        bd:ef:dd:6f:39:fe:91:7d:79:95:49:ff:11:21:26:a5:44:bc:
        25:cf:82:fa:2b:a2:a1:30:2b:74:2f:fc:9a:6b:cc:95:39:67:
        e8:6d:3f:c4:22:e3:e1:30:ae:0d:d3:0e:23:68:3f:fd:34:5c:
        24:5d:71:de:37:da:33:b6:ea:90:43:f7:8f:ba:05:53:74:c0:
        92:18:92:50:4c:7e:4f:1f:3b:2c:ba:5a:52:7e:d1:46:d3:12:
        15:3d:48:b0:f1:db:bb:6a:63:df:96:68:ae:a4:39:0e:84:7f:
        ab:d2:46:f9:80:4a:86:4e:4f:77:dc:2d:dc:a8:da:d6:cc:5b:
        00:24:39:bd:f2:fe:1d:49:0c:f3:fd:9f:2d:5e:a6:99:c3:0b:
        18:5f:30:17:7b:ea:04:77:b9:86:26:75:62:29:f8:db:a2:66:
        f8:e8:8e:2f:db:21:fa:12:cc:f4:44:d9:f8:a2:de:b2:a5:b3:
        9c:90:5b:0b:5a:e7:84:92:ed:d0:fa:9f:11:08:48:86:e6:f7:
        88:05:e7:c7:1c:2e:ea:54:17:f5:36:62:ef:85:79:08:b4:ac:
        83:05:e4:9e:1c:fd:89:41:2a:74:51:c5:78:5b:15:d8:4f:8b:
        a6:9f:74:63:04:8c:b2:81:b6:22:c1:69:ed:e6:15:2e:3c:f6:
        c1:52:2d:4b:8c:d0:dd:d1:8d:e1:00:3a:71:1a:30:48:15:32:
        87:9e:a2:12:f5:67:b6:9c:34:3b:13:92:46:86:d8:fc:a5:3e:
        8a:34:53:76:05:94:3a:17:21:e1:f9:ca:44:27:fd:33:3d:5a:
        37:3f:0c:80:d3:be:3a:02:68:8a:c1:e5:ca:74:a6:cd:72:13:
        cd:8c:79:8d:b3:d6:67:94:db:a6:46:dd:4b:a4:0c:46:78:96:
        b1:31:c0:35:92:1f:4a:48:f9:6c:58:ec:c7:22:de:b4:2b:57:
        68:37:64:f5:6a:4a:e2:b3:31:06:83:76:78:52:25:ab:63:cd:
        b0:0b:41:ba:be:40:b8:76:8c:85:a6:57:0d:04:28:26:2c:27:
        4d:1b:b7:5c:fd:55:16:38:a4:d1:73:67:7a:b5:10:b3:f0:34:
        95:fd:33:3d:87:2d:01:e3:10:5b:7f:b7:8a:7b:23:52:ed:cf:
        5b:f4:1b:91:c9:af:0b:0a:c0:9a:de:a9:48:0f:eb:4f:17:ab:
        f1:56:10:e6:8a:74:29:ab:46:e9:2f:c9:dd:a2:d8:26:9c:79:
        93:d2:7b:2c:a7:59:38:e3:87:34:fd:1f:87:1f:f3:1a:a3:64:
        0d:27:ba:1c:fb:c8:58:13
-----BEGIN CERTIFICATE-----
MIIGUDCCBDigAwIBAgIBAjANBgkqhkiG9w0BAQUFADB8MQswCQYDVQQGEwJOTDEW
MBQGA1UECBMNTm9vcmQtSG9sbGFuZDESMBAGA1UEBxMJQW1zdGVyZGFtMRQwEgYD
VQQKEwtTU0FsbGV5V2FyZTENMAsGA1UECxMEdGVzdDEcMBoGA1UEAxMTU1NBbGxl
eVdhcmUgUm9vdCBDQTAeFw0xMTA4MTcyMzU4MzdaFw0zOTAxMDIyMzU4MzhaMHYx
CzAJBgNVBAYTAk5MMRYwFAYDVQQIEw1Ob29yZC1Ib2xsYW5kMRQwEgYDVQQKEwtT
U0FsbGV5V2FyZTENMAsGA1UECxMEdGVzdDEqMCgGA1UEAxMhU1NBbGxleVdhcmUg
T3RoZXIgSW50ZXJtZWRpYXRlIENBMIICIjANBgkqhkiG9w0BAQEFAAOCAg8AMIIC
CgKCAgEA1OWHjTuRjhJQu5Q3j1kkw/rfqqEC0jhOYKxauNNTE3RBMiTnpP6B8gbU
s6BzKiHb/tqqKGfnYR+p2vd75vhoy62hO+GEpi4JTAcBU75wUAIoJ5asiNhhXqu/
xD3l2BXz1byqvEOHwx7VaeJXOW3MMUo1gdglKdMoxB+4ypO51/gZbDAq8dRaEzeY
yiDOz3sBok0z7hTaEUG1JlP7tQHqgf3jMHIk0yT2ssLjoW1wQI2m9pDJnp+C3lPI
u6yRSUqZ1XTjocV5VL89CwHeU4Rcs5Kjhu6XRS4gGrNtozKs0T51T57m2Mt5zT2U
kzesp/Xg+c1x72kc49oTANMSrxbDDpyqJifhKyQm1OETJMRnHJfzzmmf2WmpY0Wb
PWBAZj17qc4VHGpTIZ4tuQFRaqaoedXyT0ux5trH/dTF8xbErFwcRUPEFCpKLqgb
awbx8EZ8jO7ghkb8h9lTVnDR2OOWHCcOLN2UW3cuszwXUYvNoWEYRsTKZIzwyDme
28AuL2zeSbOHERZl+GS7yJju2rQ8zOZ5WHvHj4IRB8Brx786RQVawlEQ/b9U9MhV
U66KDnOjzLfiHdLgR8wfVD/GuRzvOD8qv4Ll3a33RSycz1buyZ78dFTIU/c6hGwd
V4ikOClfcnXVfaJbeJoMVpo396vDHvWbaWbsEe7o0K706R7k44MCAwEAAaOB4jCB
3zAdBgNVHQ4EFgQUyaaB6W0ySs27idv1dWtsIHr4im0wga8GA1UdIwSBpzCBpIAU
d9+CjrFQZDwbj3HJwDiL0vTe5kKhgYCkfjB8MQswCQYDVQQGEwJOTDEWMBQGA1UE
CBMNTm9vcmQtSG9sbGFuZDESMBAGA1UEBxMJQW1zdGVyZGFtMRQwEgYDVQQKEwtT
U0FsbGV5V2FyZTENMAsGA1UECxMEdGVzdDEcMBoGA1UEAxMTU1NBbGxleVdhcmUg
Um9vdCBDQYIJAIll5Gm8dMFNMAwGA1UdEwQFMAMBAf8wDQYJKoZIhvcNAQEFBQAD
ggIBAA7iEf4G9F+E+0QgsXft60/jdr3v3W85/pF9eZVJ/xEhJqVEvCXPgvoroqEw
K3Qv/JprzJU5Z+htP8Qi4+Ewrg3TDiNoP/00XCRdcd432jO26pBD94+6BVN0wJIY
klBMfk8fOyy6WlJ+0UbTEhU9SLDx27tqY9+WaK6kOQ6Ef6vSRvmASoZOT3fcLdyo
2tbMWwAkOb3y/h1JDPP9ny1eppnDCxhfMBd76gR3uYYmdWIp+NuiZvjoji/bIfoS
zPRE2fii3rKls5yQWwta54SS7dD6nxEISIbm94gF58ccLupUF/U2Yu+FeQi0rIMF
5J4c/YlBKnRRxXhbFdhPi6afdGMEjLKBtiLBae3mFS489sFSLUuM0N3RjeEAOnEa
MEgVMoeeohL1Z7acNDsTkkaG2PylPoo0U3YFlDoXIeH5ykQn/TM9Wjc/DIDTvjoC
aIrB5cp0ps1yE82MeY2z1meU26ZG3UukDEZ4lrExwDWSH0pI+WxY7Mci3rQrV2g3
ZPVqSuKzMQaDdnhSJatjzbALQbq+QLh2jIWmVw0EKCYsJ00bt1z9VRY4pNFzZ3q1
ELPwNJX9Mz2HLQHjEFt/t4p7I1Ltz1v0G5HJrwsKwJreqUgP608Xq/FWEOaKdCmr
Rukvyd2i2CaceZPSeyynWTjjhzT9H4cf8xqjZA0nuhz7yFgT
-----END CERTIFICATE-----
