Certificate:
    Data:
        Version: 3 (0x2)
        Serial Number: 2 (0x2)
        Signature Algorithm: sha1WithRSAEncryption
        Issuer: C=NL, ST=Noord-Holland, L=Amsterdam, O=SSAlleyWare, OU=test, CN=SSAlleyWare Root CA
        Validity
            Not Before: Aug 18 00:22:52 2011 GMT
            Not After : Jan  3 00:22:52 2039 GMT
        Subject: C=NL, ST=Noord-Holland, O=SSAlleyWare, OU=test, CN=SSAlleyWare Other Intermediate CA
        Subject Public Key Info:
            Public Key Algorithm: rsaEncryption
            RSA Public Key: (4096 bit)
                Modulus (4096 bit):
                    00:b3:13:5f:f9:9c:6f:39:4c:cd:34:6e:e2:b2:5e:
                    cd:7e:6d:89:e1:78:52:4d:2b:01:d3:24:2d:e4:a9:
                    ac:eb:0f:be:6a:8c:d4:3a:3b:09:4d:ff:4c:8a:ca:
                    f8:8e:68:ef:45:e7:0e:7f:c1:df:01:ae:89:30:7b:
                    d8:d3:43:a9:46:cc:5a:0e:8f:0c:c2:39:93:d8:5a:
                    2d:63:b0:5e:8d:cb:30:ea:2a:c8:8a:da:34:5c:d2:
                    13:40:b1:ce:1d:00:f9:3d:0b:b9:25:4d:43:1b:51:
                    5c:b5:43:9a:d1:fb:c5:76:5a:ec:c3:4b:87:fc:59:
                    e0:80:86:68:84:a6:28:04:b6:cd:e8:61:fa:df:e8:
                    3b:79:21:4a:8a:b3:40:e5:04:04:d8:fc:85:64:5b:
                    60:59:89:2d:a6:a5:73:08:fc:91:ad:93:ab:08:bf:
                    83:ae:c6:26:bf:f9:a3:68:e9:89:e3:69:e3:71:0d:
                    42:e3:a9:21:94:3b:84:ec:d9:31:48:d8:29:3e:0d:
                    72:ac:53:9b:c5:3d:22:7a:60:70:15:00:43:ea:00:
                    a2:e4:d1:ad:f9:08:71:b8:0b:c5:10:ef:d3:87:2d:
                    03:a1:95:b5:63:ec:af:8c:22:93:c9:79:21:93:94:
                    87:b3:be:ed:ee:29:b5:03:62:4c:ad:6a:9a:98:8c:
                    85:43:de:f8:ab:13:84:fd:75:3a:7c:9c:a0:48:59:
                    b7:2d:bb:c2:5a:94:b2:ce:3d:c3:34:f3:e3:fd:f0:
                    27:3f:3d:a4:f0:79:fb:f1:38:40:39:0b:1a:25:0f:
                    25:36:8b:32:1a:e1:74:d5:c7:a3:fb:e3:fd:1c:4b:
                    5f:df:75:18:a9:e4:6e:f9:e1:48:4a:d4:46:e4:f9:
                    2e:ec:07:8c:e3:da:23:eb:85:cd:d5:81:c7:cd:8f:
                    2b:68:f8:07:d2:38:7f:00:68:a5:cf:6e:4a:6d:a1:
                    d3:07:7d:c1:02:0d:be:a8:bd:98:98:45:b3:63:bf:
                    09:8d:53:86:0b:7d:24:4c:0a:f4:1e:42:54:00:d7:
                    7d:b6:70:74:dd:87:47:f4:7c:63:20:fc:fa:06:43:
                    c5:47:24:9b:52:a3:99:ee:11:32:d2:09:a5:31:34:
                    b8:16:ea:dd:f2:f1:af:a5:8f:11:2d:e3:fb:7f:1e:
                    02:3f:d1:5a:f9:1d:d9:c4:7c:8e:c8:95:a2:86:a3:
                    77:3c:17:a3:97:04:b8:d7:16:d5:4f:fe:dc:5d:a0:
                    8d:97:a9:9d:34:32:5a:06:f7:84:7f:e9:f3:bb:0f:
                    89:0c:f2:2e:87:53:e1:d1:23:c8:9d:10:25:f2:4a:
                    6b:0b:c7:db:4b:3e:40:76:a8:b2:dc:e6:6c:82:d3:
                    3f:10:59
                Exponent: 65537 (0x10001)
        X509v3 extensions:
            X509v3 Subject Key Identifier: 
                61:11:62:2E:DD:DF:DD:E2:A1:5B:59:2F:DC:CB:EE:17:50:DD:70:C5
            X509v3 Authority Key Identifier: 
                keyid:15:09:36:AF:45:CA:E3:CA:AD:B7:01:F7:1B:22:76:92:2C:0C:EE:20
                DirName:/C=NL/ST=Noord-Holland/L=Amsterdam/O=SSAlleyWare/OU=test/CN=SSAlleyWare Root CA
                serial:D2:E9:C8:36:47:14:C7:42

            X509v3 Basic Constraints: 
                CA:TRUE
    Signature Algorithm: sha1WithRSAEncryption
        63:17:3f:4d:31:88:98:62:52:e0:02:35:ea:ce:a7:54:f1:81:
        42:bd:e4:e2:78:33:20:64:ae:0e:49:05:2f:f1:26:76:f9:5d:
        e8:35:b0:b3:e7:65:be:6c:a8:e2:7e:14:b8:38:c0:e4:93:59:
        87:1c:8d:17:df:f8:dd:3a:be:1d:fd:40:8c:f8:0e:97:3a:04:
        bf:6d:60:7d:3c:5f:44:b1:3c:6c:28:ae:a6:cb:78:bb:27:7f:
        b2:b5:bb:e8:cb:a8:f6:41:0c:88:2e:ac:90:28:4d:7c:84:54:
        58:68:81:d7:41:7a:d8:af:a9:f4:d9:c8:1a:88:e4:f0:4f:0c:
        52:18:cb:41:1e:b7:a3:33:88:bc:85:30:d8:55:6f:e5:e3:c9:
        f2:6b:21:08:d5:ea:7a:aa:74:e4:2a:ce:61:c7:b9:7b:d1:30:
        b3:fa:c6:a7:69:e3:29:c5:e0:ed:b8:b2:c6:d9:e4:3a:1f:51:
        31:b6:05:a1:f4:0e:f8:31:80:91:dc:43:2a:0a:eb:8b:b0:af:
        0f:51:91:f2:21:b0:10:72:97:77:5e:b9:4e:f4:db:94:f3:94:
        60:c1:98:3d:77:96:f6:69:fe:0a:4d:23:8e:61:14:53:04:52:
        d1:7a:30:53:ea:cd:ad:f9:96:6c:2d:91:0d:bd:06:e8:21:2a:
        2f:b8:aa:52:45:b2:37:ac:eb:38:57:b3:04:97:9f:0a:5e:d7:
        0b:59:4b:0b:0d:48:4e:14:db:60:36:43:ba:55:aa:d2:e5:6f:
        72:c8:ee:0a:67:fc:3a:64:1d:44:2a:d8:90:29:72:2e:87:5c:
        80:46:7e:05:f0:d4:ec:5b:eb:b9:e0:74:ea:d1:83:b3:e6:52:
        92:a9:12:92:16:dc:f3:11:1e:36:84:b4:11:e8:c1:52:09:b3:
        7a:e9:ca:f9:51:61:48:28:68:32:f2:e3:e4:99:fb:30:f2:3f:
        3e:53:5d:26:db:2e:18:44:da:ab:36:0e:a1:98:3c:9c:c5:6d:
        3a:c9:9c:d4:bf:9f:94:41:54:ae:5b:09:2d:96:75:8b:83:48:
        5d:af:3b:64:88:fa:3b:06:dd:5c:55:ca:ce:33:53:41:f0:6a:
        2a:b5:34:e8:53:c9:5b:69:bc:e9:20:45:05:16:b5:ec:ab:e9:
        6b:ac:0b:f2:50:65:fb:f5:b1:9e:b3:ae:78:84:58:cb:f5:16:
        c1:6a:e1:2c:a5:3b:f6:5a:7c:49:07:84:22:43:68:a2:09:fc:
        65:72:62:36:96:62:6c:17:80:08:e3:35:a0:ed:88:6a:1a:69:
        c6:7b:bd:78:b4:1f:9f:bc:bb:4e:b8:04:90:32:c0:ab:8c:4f:
        3a:8d:46:10:fe:10:b1:ba
-----BEGIN CERTIFICATE-----
MIIGUDCCBDigAwIBAgIBAjANBgkqhkiG9w0BAQUFADB8MQswCQYDVQQGEwJOTDEW
MBQGA1UECBMNTm9vcmQtSG9sbGFuZDESMBAGA1UEBxMJQW1zdGVyZGFtMRQwEgYD
VQQKEwtTU0FsbGV5V2FyZTENMAsGA1UECxMEdGVzdDEcMBoGA1UEAxMTU1NBbGxl
eVdhcmUgUm9vdCBDQTAeFw0xMTA4MTgwMDIyNTJaFw0zOTAxMDMwMDIyNTJaMHYx
CzAJBgNVBAYTAk5MMRYwFAYDVQQIEw1Ob29yZC1Ib2xsYW5kMRQwEgYDVQQKEwtT
U0FsbGV5V2FyZTENMAsGA1UECxMEdGVzdDEqMCgGA1UEAxMhU1NBbGxleVdhcmUg
T3RoZXIgSW50ZXJtZWRpYXRlIENBMIICIjANBgkqhkiG9w0BAQEFAAOCAg8AMIIC
CgKCAgEAsxNf+ZxvOUzNNG7isl7Nfm2J4XhSTSsB0yQt5Kms6w++aozUOjsJTf9M
isr4jmjvRecOf8HfAa6JMHvY00OpRsxaDo8MwjmT2FotY7Bejcsw6irIito0XNIT
QLHOHQD5PQu5JU1DG1FctUOa0fvFdlrsw0uH/FnggIZohKYoBLbN6GH63+g7eSFK
irNA5QQE2PyFZFtgWYktpqVzCPyRrZOrCL+DrsYmv/mjaOmJ42njcQ1C46khlDuE
7NkxSNgpPg1yrFObxT0iemBwFQBD6gCi5NGt+QhxuAvFEO/Thy0DoZW1Y+yvjCKT
yXkhk5SHs77t7im1A2JMrWqamIyFQ974qxOE/XU6fJygSFm3LbvCWpSyzj3DNPPj
/fAnPz2k8Hn78ThAOQsaJQ8lNosyGuF01cej++P9HEtf33UYqeRu+eFIStRG5Pku
7AeM49oj64XN1YHHzY8raPgH0jh/AGilz25KbaHTB33BAg2+qL2YmEWzY78JjVOG
C30kTAr0HkJUANd9tnB03YdH9HxjIPz6BkPFRySbUqOZ7hEy0gmlMTS4Furd8vGv
pY8RLeP7fx4CP9Fa+R3ZxHyOyJWihqN3PBejlwS41xbVT/7cXaCNl6mdNDJaBveE
f+nzuw+JDPIuh1Ph0SPInRAl8kprC8fbSz5Adqiy3OZsgtM/EFkCAwEAAaOB4jCB
3zAdBgNVHQ4EFgQUYRFiLt3f3eKhW1kv3MvuF1DdcMUwga8GA1UdIwSBpzCBpIAU
FQk2r0XK48qttwH3GyJ2kiwM7iChgYCkfjB8MQswCQYDVQQGEwJOTDEWMBQGA1UE
CBMNTm9vcmQtSG9sbGFuZDESMBAGA1UEBxMJQW1zdGVyZGFtMRQwEgYDVQQKEwtT
U0FsbGV5V2FyZTENMAsGA1UECxMEdGVzdDEcMBoGA1UEAxMTU1NBbGxleVdhcmUg
Um9vdCBDQYIJANLpyDZHFMdCMAwGA1UdEwQFMAMBAf8wDQYJKoZIhvcNAQEFBQAD
ggIBAGMXP00xiJhiUuACNerOp1TxgUK95OJ4MyBkrg5JBS/xJnb5Xeg1sLPnZb5s
qOJ+FLg4wOSTWYccjRff+N06vh39QIz4Dpc6BL9tYH08X0SxPGworqbLeLsnf7K1
u+jLqPZBDIgurJAoTXyEVFhogddBetivqfTZyBqI5PBPDFIYy0Eet6MziLyFMNhV
b+XjyfJrIQjV6nqqdOQqzmHHuXvRMLP6xqdp4ynF4O24ssbZ5DofUTG2BaH0Dvgx
gJHcQyoK64uwrw9RkfIhsBByl3deuU7025TzlGDBmD13lvZp/gpNI45hFFMEUtF6
MFPqza35lmwtkQ29BughKi+4qlJFsjes6zhXswSXnwpe1wtZSwsNSE4U22A2Q7pV
qtLlb3LI7gpn/DpkHUQq2JApci6HXIBGfgXw1Oxb67ngdOrRg7PmUpKpEpIW3PMR
HjaEtBHowVIJs3rpyvlRYUgoaDLy4+SZ+zDyPz5TXSbbLhhE2qs2DqGYPJzFbTrJ
nNS/n5RBVK5bCS2WdYuDSF2vO2SI+jsG3VxVys4zU0Hwaiq1NOhTyVtpvOkgRQUW
teyr6WusC/JQZfv1sZ6zrniEWMv1FsFq4SylO/ZafEkHhCJDaKIJ/GVyYjaWYmwX
gAjjNaDtiGoaacZ7vXi0H5+8u064BJAywKuMTzqNRhD+ELG6
-----END CERTIFICATE-----
