Certificate:
    Data:
        Version: 3 (0x2)
        Serial Number: 1 (0x1)
        Signature Algorithm: sha1WithRSAEncryption
        Issuer: C=NL, ST=Noord-Holland, O=SSAlleyWare, OU=test, CN=SSAlleyWare Intermediate CA
        Validity
            Not Before: Aug 18 00:22:24 2011 GMT
            Not After : Jan  3 00:22:24 2039 GMT
        Subject: C=NL, ST=Noord-Holland, O=SSAlleyWare, OU=test, CN=server.ssalleyware.local
        Subject Public Key Info:
            Public Key Algorithm: rsaEncryption
            RSA Public Key: (4096 bit)
                Modulus (4096 bit):
                    00:f8:ec:73:e1:a3:4a:10:96:d7:9b:b0:8f:26:b4:
                    9c:fa:cc:c1:00:48:27:32:17:dd:5b:8c:64:05:ea:
                    04:34:33:91:0d:5b:0c:8b:bc:e0:3a:f9:5d:95:9f:
                    9a:c5:dd:bc:9d:b5:d2:ec:35:b3:40:ef:21:07:0f:
                    37:af:54:fe:ae:d0:da:b5:14:44:25:5b:b9:4c:ad:
                    e4:22:6f:28:77:f4:20:a7:74:d5:00:9b:35:aa:0b:
                    3e:b3:be:cd:17:21:c9:27:cd:df:d4:91:22:f1:a8:
                    d7:b4:df:d2:e7:54:a0:b0:78:f0:fa:d1:7c:7a:e8:
                    3d:f3:8c:b4:0c:38:94:c3:69:1d:22:a9:18:d4:c1:
                    2d:5b:b0:66:fa:30:dc:bf:3c:7e:7a:c3:72:2e:16:
                    49:27:26:61:1f:27:74:d0:44:3a:99:6d:d8:e5:d3:
                    df:67:78:64:c6:c7:a7:ef:8d:e4:e3:31:a2:49:82:
                    05:97:71:d8:a6:3b:77:a2:fc:df:d2:32:56:56:30:
                    30:92:f9:1c:f6:16:f0:a2:50:c7:f6:b3:cb:e5:40:
                    92:8c:f7:b4:d8:24:42:d3:51:1d:ee:55:a2:55:80:
                    21:d6:09:7a:9c:19:c2:eb:36:fd:09:6d:a6:c4:36:
                    67:35:48:10:ac:2c:82:a6:a5:c5:10:e9:2e:e0:6c:
                    34:7b:a9:59:cb:82:e5:b7:d8:4e:02:ef:9d:e6:5b:
                    7f:be:3e:b3:2d:03:e9:72:10:4b:8d:20:a6:05:85:
                    b0:84:87:c1:a9:73:d8:50:92:69:d0:f1:4e:6c:08:
                    15:e5:ab:59:8d:4d:39:db:c9:28:e4:dd:e8:74:08:
                    21:65:98:80:6f:6e:08:61:df:86:bd:de:a6:72:33:
                    47:e0:a1:86:af:58:b5:da:4d:47:29:17:27:28:cc:
                    6f:da:59:63:9a:b8:7f:fa:b8:12:e8:2f:80:27:25:
                    25:b8:f6:56:4a:4d:69:0f:7a:43:a2:bc:a7:c4:5b:
                    8c:01:0a:e0:a2:d8:5c:f7:03:03:6c:22:74:81:08:
                    f3:ca:72:5e:21:75:d1:e0:c8:76:72:69:68:cf:bc:
                    88:3f:a3:93:14:c7:e7:df:df:4b:8d:f7:34:ab:32:
                    09:fe:68:a7:f2:08:08:07:6e:23:97:c1:2c:ab:26:
                    86:63:d0:6d:de:a3:20:96:29:6f:4c:6b:77:85:b7:
                    97:aa:dc:f1:a7:0d:f4:cf:a0:12:ec:71:49:47:7a:
                    02:c4:92:1c:1d:00:ab:6e:5b:1a:b9:a2:ae:d3:e6:
                    d8:1e:bf:b8:ed:bf:19:07:fb:40:dc:84:a3:7c:72:
                    59:62:7c:46:85:27:be:28:8d:30:50:17:91:32:71:
                    45:b7:ed
                Exponent: 65537 (0x10001)
        X509v3 extensions:
            X509v3 Subject Key Identifier: 
                3D:61:DC:64:0C:7F:36:A3:41:71:6D:64:94:34:8E:B9:24:BE:31:E0
            X509v3 Authority Key Identifier: 
                keyid:76:2D:4D:3A:71:80:99:17:F7:0A:04:4F:29:0F:89:68:70:18:90:34
                DirName:/C=NL/ST=Noord-Holland/L=Amsterdam/O=SSAlleyWare/OU=test/CN=SSAlleyWare Root CA
                serial:01

            X509v3 Basic Constraints: 
                CA:TRUE
    Signature Algorithm: sha1WithRSAEncryption
        f2:dc:34:ca:e3:0b:84:14:46:92:33:68:8b:0f:be:1d:94:e7:
        cb:fa:65:3d:f1:32:6a:74:16:b9:84:09:e7:cf:9e:12:c8:63:
        82:10:05:25:53:6d:58:d4:dd:cd:d0:8d:9d:95:c9:04:0a:83:
        bd:3f:7e:95:9c:89:30:05:c1:ce:5f:df:d9:19:32:b9:ab:16:
        c1:ce:c6:a8:18:ef:a0:3f:27:af:d3:bd:03:02:1e:08:37:92:
        c6:8e:cf:3a:a0:95:47:3e:e3:e8:71:65:6d:10:38:2d:4b:3d:
        06:c7:ce:e7:d4:41:e3:53:1e:04:d4:87:fb:a9:fb:a3:3a:56:
        f1:40:de:87:0a:96:9c:14:2a:01:de:3c:d9:03:21:6f:07:03:
        22:a7:ed:a0:84:4a:2d:4c:63:10:b9:d9:08:76:e5:8f:85:85:
        28:66:26:9b:af:8d:1c:d7:fb:c6:56:a4:4f:5c:c1:a1:e5:39:
        15:d9:72:c7:a3:96:f1:c3:22:c2:d6:a4:e7:eb:57:59:66:12:
        22:34:66:cf:e8:c4:f8:cd:87:a0:5d:4d:79:bc:39:fd:d4:27:
        2f:b4:d4:19:40:cb:19:b9:b4:c8:04:93:d9:ef:04:cd:4e:ef:
        48:cc:39:01:d3:f5:62:e2:5d:b0:4c:a6:20:89:ee:c6:b1:87:
        fa:71:e1:95:53:45:11:c3:c5:f7:00:8a:e8:a8:06:61:15:eb:
        42:cd:8e:6b:21:0c:cf:85:db:5a:6e:89:e7:5f:20:d7:8a:2a:
        80:f8:d3:d0:54:18:30:f2:38:4f:68:fa:9a:7f:7a:10:7e:c6:
        18:9f:bd:dc:fc:64:c5:91:5f:36:d3:3c:74:7f:8c:da:2c:65:
        ee:61:32:97:e8:bf:83:3f:76:01:d8:09:ba:80:0c:b3:1d:77:
        ad:0d:4e:a6:f2:22:53:f6:a0:47:9d:91:e7:9c:b1:c7:a7:d6:
        38:9e:45:88:df:ad:93:bf:de:84:f9:86:5a:78:3a:c4:8c:99:
        cf:1b:4c:7d:f9:dd:c2:93:19:b0:25:25:36:3b:c0:4b:eb:b1:
        af:8c:c8:94:f7:bf:96:49:54:06:3e:7e:de:f8:45:2f:26:3f:
        80:5b:0b:eb:ef:e3:2e:33:89:b3:21:87:f8:0f:58:53:6c:60:
        36:df:2a:45:dd:73:70:77:a1:e2:45:6f:0c:d6:33:70:38:8f:
        e8:1c:6d:2d:27:50:46:d9:34:a6:ca:57:14:95:22:e4:2d:a4:
        fe:d4:e5:27:91:e3:3f:d4:01:56:d1:c3:c5:15:34:81:43:2f:
        d2:01:68:f1:9e:f4:27:39:ad:41:29:04:16:e7:a2:42:1f:b9:
        58:96:67:bc:b2:89:3d:d9
-----BEGIN CERTIFICATE-----
MIIGMzCCBBugAwIBAgIBATANBgkqhkiG9w0BAQUFADBwMQswCQYDVQQGEwJOTDEW
MBQGA1UECBMNTm9vcmQtSG9sbGFuZDEUMBIGA1UEChMLU1NBbGxleVdhcmUxDTAL
BgNVBAsTBHRlc3QxJDAiBgNVBAMTG1NTQWxsZXlXYXJlIEludGVybWVkaWF0ZSBD
QTAeFw0xMTA4MTgwMDIyMjRaFw0zOTAxMDMwMDIyMjRaMG0xCzAJBgNVBAYTAk5M
MRYwFAYDVQQIEw1Ob29yZC1Ib2xsYW5kMRQwEgYDVQQKEwtTU0FsbGV5V2FyZTEN
MAsGA1UECxMEdGVzdDEhMB8GA1UEAxMYc2VydmVyLnNzYWxsZXl3YXJlLmxvY2Fs
MIICIjANBgkqhkiG9w0BAQEFAAOCAg8AMIICCgKCAgEA+Oxz4aNKEJbXm7CPJrSc
+szBAEgnMhfdW4xkBeoENDORDVsMi7zgOvldlZ+axd28nbXS7DWzQO8hBw83r1T+
rtDatRREJVu5TK3kIm8od/Qgp3TVAJs1qgs+s77NFyHJJ83f1JEi8ajXtN/S51Sg
sHjw+tF8eug984y0DDiUw2kdIqkY1MEtW7Bm+jDcvzx+esNyLhZJJyZhHyd00EQ6
mW3Y5dPfZ3hkxsen743k4zGiSYIFl3HYpjt3ovzf0jJWVjAwkvkc9hbwolDH9rPL
5UCSjPe02CRC01Ed7lWiVYAh1gl6nBnC6zb9CW2mxDZnNUgQrCyCpqXFEOku4Gw0
e6lZy4Llt9hOAu+d5lt/vj6zLQPpchBLjSCmBYWwhIfBqXPYUJJp0PFObAgV5atZ
jU0528ko5N3odAghZZiAb24IYd+Gvd6mcjNH4KGGr1i12k1HKRcnKMxv2lljmrh/
+rgS6C+AJyUluPZWSk1pD3pDorynxFuMAQrgothc9wMDbCJ0gQjzynJeIXXR4Mh2
cmloz7yIP6OTFMfn399Ljfc0qzIJ/min8ggIB24jl8EsqyaGY9Bt3qMglilvTGt3
hbeXqtzxpw30z6AS7HFJR3oCxJIcHQCrblsauaKu0+bYHr+47b8ZB/tA3ISjfHJZ
YnxGhSe+KI0wUBeRMnFFt+0CAwEAAaOB2jCB1zAdBgNVHQ4EFgQUPWHcZAx/NqNB
cW1klDSOuSS+MeAwgacGA1UdIwSBnzCBnIAUdi1NOnGAmRf3CgRPKQ+JaHAYkDSh
gYCkfjB8MQswCQYDVQQGEwJOTDEWMBQGA1UECBMNTm9vcmQtSG9sbGFuZDESMBAG
A1UEBxMJQW1zdGVyZGFtMRQwEgYDVQQKEwtTU0FsbGV5V2FyZTENMAsGA1UECxME
dGVzdDEcMBoGA1UEAxMTU1NBbGxleVdhcmUgUm9vdCBDQYIBATAMBgNVHRMEBTAD
AQH/MA0GCSqGSIb3DQEBBQUAA4ICAQDy3DTK4wuEFEaSM2iLD74dlOfL+mU98TJq
dBa5hAnnz54SyGOCEAUlU21Y1N3N0I2dlckECoO9P36VnIkwBcHOX9/ZGTK5qxbB
zsaoGO+gPyev070DAh4IN5LGjs86oJVHPuPocWVtEDgtSz0Gx87n1EHjUx4E1If7
qfujOlbxQN6HCpacFCoB3jzZAyFvBwMip+2ghEotTGMQudkIduWPhYUoZiabr40c
1/vGVqRPXMGh5TkV2XLHo5bxwyLC1qTn61dZZhIiNGbP6MT4zYegXU15vDn91Ccv
tNQZQMsZubTIBJPZ7wTNTu9IzDkB0/Vi4l2wTKYgie7GsYf6ceGVU0URw8X3AIro
qAZhFetCzY5rIQzPhdtabonnXyDXiiqA+NPQVBgw8jhPaPqaf3oQfsYYn73c/GTF
kV820zx0f4zaLGXuYTKX6L+DP3YB2Am6gAyzHXetDU6m8iJT9qBHnZHnnLHHp9Y4
nkWI362Tv96E+YZaeDrEjJnPG0x9+d3CkxmwJSU2O8BL67GvjMiU97+WSVQGPn7e
+EUvJj+AWwvr7+MuM4mzIYf4D1hTbGA23ypF3XNwd6HiRW8M1jNwOI/oHG0tJ1BG
2TSmylcUlSLkLaT+1OUnkeM/1AFW0cPFFTSBQy/SAWjxnvQnOa1BKQQW56JCH7lY
lme8sok92Q==
-----END CERTIFICATE-----
