Certificate:
    Data:
        Version: 3 (0x2)
        Serial Number: 1 (0x1)
        Signature Algorithm: sha1WithRSAEncryption
        Issuer: C=NL, ST=Noord-Holland, O=SSAlleyWare, OU=test, CN=SSAlleyWare Intermediate CA
        Validity
            Not Before: Aug 17 23:40:54 2011 GMT
            Not After : Jan  2 23:40:54 2039 GMT
        Subject: C=NL, ST=Noord-Holland, O=SSAlleyWare, OU=test, CN=SSAlleyWare Server
        Subject Public Key Info:
            Public Key Algorithm: rsaEncryption
            RSA Public Key: (4096 bit)
                Modulus (4096 bit):
                    00:a9:52:20:8f:b1:46:50:a0:8f:03:04:ac:49:5a:
                    5f:0c:40:e6:c3:e4:cf:a5:77:e9:bf:86:f5:e4:c4:
                    59:d7:50:a8:6e:2e:ca:0a:8a:b8:9c:00:c2:ce:4a:
                    18:ae:51:92:8a:6e:99:d8:2a:b3:1a:cf:cb:d0:8b:
                    c4:33:fb:29:f6:6b:4b:10:c3:82:a1:82:57:c8:a6:
                    51:be:9b:4b:84:93:23:ff:72:99:26:c8:80:2e:b5:
                    95:78:f6:77:2a:40:cf:e7:d5:e3:4a:ea:90:19:c7:
                    94:d3:1c:7e:91:35:5e:9b:24:81:f6:90:b0:ac:3b:
                    be:d9:a5:7c:fe:c2:43:ad:d1:ae:f2:c5:6b:ae:83:
                    67:61:13:6d:05:10:e1:af:86:35:8b:42:91:87:aa:
                    5c:2d:b8:45:82:ce:aa:71:80:b2:b4:25:54:49:1b:
                    f0:4d:46:6c:a8:77:16:e6:e0:65:27:3d:57:e5:65:
                    e4:47:55:9c:02:8c:3a:c4:88:76:5b:03:58:21:e5:
                    a5:bf:51:1e:b8:9d:bf:46:76:37:bd:5f:3e:c3:77:
                    83:d2:aa:22:c8:94:e2:b1:d8:2d:d3:16:e9:46:03:
                    dd:28:b0:98:6b:c8:1c:29:ad:af:ce:29:26:eb:80:
                    4d:00:e3:61:b9:b5:75:7e:ec:01:01:e9:43:02:e5:
                    a1:86:a6:41:ed:57:04:6b:6b:e1:2f:93:4c:64:5e:
                    6e:32:e0:1f:0f:ce:70:79:51:39:a9:ad:fb:50:1b:
                    1c:8b:d6:b2:42:ae:33:9f:91:cf:33:2d:35:aa:b7:
                    65:09:57:71:ec:29:d1:99:1e:61:b0:e0:e2:25:8d:
                    0e:61:5a:1c:eb:f1:97:71:21:5a:bb:02:28:f2:28:
                    81:2a:50:37:51:74:df:d2:a4:90:b5:90:39:63:52:
                    e7:bc:51:aa:56:bb:62:d2:e5:68:a2:9d:7a:ca:2a:
                    8b:31:52:f8:22:65:62:a2:a9:1b:0f:e9:9e:45:ad:
                    19:a4:f8:3b:42:c9:f3:4d:58:db:fc:19:62:7a:79:
                    68:f6:5a:ce:e0:58:f6:a5:6b:69:96:07:1a:84:7b:
                    67:52:11:35:dd:9b:44:89:40:83:d7:67:aa:16:1e:
                    72:02:73:d6:47:06:39:92:c4:11:da:d7:7d:7f:18:
                    51:55:07:c2:ee:09:77:c4:1e:a2:93:d9:4d:13:b8:
                    cb:28:42:95:8a:a9:f3:ef:00:e9:cb:03:00:d7:fc:
                    45:ac:10:cd:0c:73:48:f9:b4:8b:69:87:d4:87:11:
                    10:f5:7e:fe:54:f6:f7:a8:7a:c5:8c:56:a7:31:e1:
                    49:06:e6:29:9b:12:a6:39:1c:b5:09:8b:09:71:47:
                    46:58:8f
                Exponent: 65537 (0x10001)
        X509v3 extensions:
            X509v3 Subject Key Identifier: 
                A6:E6:E9:E7:64:92:5A:AF:BF:CF:FC:E2:54:E3:69:30:53:DD:A0:98
            X509v3 Authority Key Identifier: 
                keyid:2B:98:11:6B:52:66:E3:D4:40:81:85:A7:1F:43:72:40:AC:FA:65:D6
                DirName:/C=NL/ST=Noord-Holland/L=Amsterdam/O=SSAlleyWare/OU=test/CN=SSAlleyWare Root CA
                serial:01

            X509v3 Basic Constraints: 
                CA:TRUE
    Signature Algorithm: sha1WithRSAEncryption
        4e:cb:78:24:a4:76:5c:ae:83:4c:b5:32:67:be:28:d0:45:02:
        f9:47:9a:34:84:fa:db:c8:df:3c:01:6f:24:95:0b:80:2f:35:
        0f:6e:07:95:d1:cd:d4:d7:f6:84:4d:11:4d:1f:84:b4:46:65:
        2c:7e:ac:49:5b:9d:34:72:a0:38:74:1c:c4:be:8a:43:ff:a0:
        e3:3b:61:d8:7e:bc:12:66:cf:42:d4:35:d9:7d:b6:5d:33:cb:
        7d:cf:ee:fc:3a:74:9e:34:a0:4f:9f:af:6f:b9:f0:63:0a:a5:
        9d:bb:ee:80:69:97:21:43:6d:d3:4e:3d:27:5a:01:f7:ea:a4:
        2a:12:da:10:08:74:ac:41:26:de:60:94:31:9a:de:c5:64:f8:
        08:8d:08:bb:55:e5:6b:45:56:8e:9e:49:ca:4f:19:29:6d:cf:
        57:09:10:b1:19:94:b7:b4:c7:ff:89:23:f2:03:79:1a:6e:8f:
        76:45:86:f3:2a:6f:08:07:b7:19:71:f5:07:d3:24:20:97:29:
        1d:9b:72:eb:fc:3a:a5:8f:10:15:f0:91:71:1b:c5:23:11:2a:
        47:f6:36:5f:60:e4:8d:41:ad:42:8e:aa:21:0b:7d:04:c7:90:
        fa:21:0d:e1:61:64:ce:22:a0:f0:e8:78:63:8d:02:6a:b0:a3:
        c9:3b:a3:ae:50:8e:1a:6e:37:23:11:7c:80:0f:46:48:fc:d2:
        53:ed:da:fb:14:f2:00:26:e1:6c:ed:8f:d5:a0:f7:c9:1a:1b:
        6a:20:2a:eb:2b:4e:9b:a8:36:16:d3:df:ba:37:c1:72:ac:38:
        48:45:01:2e:2e:cc:c5:de:30:4a:dd:4a:31:3c:a1:9f:d9:d0:
        71:13:ca:06:76:28:c3:d2:69:e9:05:1c:25:2c:73:8c:34:05:
        b0:ba:9f:13:ec:2d:df:6f:69:f5:4d:fc:63:93:e1:e9:0a:de:
        a7:f7:7a:5e:8c:fd:b1:ee:61:5d:62:a0:63:11:c5:01:84:cf:
        16:8c:41:a3:f6:55:fb:36:4f:dc:99:ed:76:e4:d6:7a:93:10:
        46:eb:2c:9a:fc:92:2e:26:1b:81:7d:5c:c7:c5:f2:3a:15:da:
        93:8f:e3:b1:d6:70:42:a0:c0:7b:3f:71:bf:a0:c7:82:8f:bf:
        fa:81:f1:b2:10:30:1a:78:d5:35:f5:ad:cf:33:0c:9d:85:8d:
        5c:9f:e1:b6:0e:8b:a7:f7:b3:0a:60:be:c0:07:2d:f3:86:e1:
        90:6a:b4:5f:5c:36:6e:63:76:7d:99:dc:b2:4f:b0:f8:5f:e3:
        f2:c7:d8:f3:87:e4:85:aa:f6:d8:1a:c9:11:f3:4a:88:80:1e:
        c5:f6:14:a1:c1:be:93:f9
-----BEGIN CERTIFICATE-----
MIIGLTCCBBWgAwIBAgIBATANBgkqhkiG9w0BAQUFADBwMQswCQYDVQQGEwJOTDEW
MBQGA1UECBMNTm9vcmQtSG9sbGFuZDEUMBIGA1UEChMLU1NBbGxleVdhcmUxDTAL
BgNVBAsTBHRlc3QxJDAiBgNVBAMTG1NTQWxsZXlXYXJlIEludGVybWVkaWF0ZSBD
QTAeFw0xMTA4MTcyMzQwNTRaFw0zOTAxMDIyMzQwNTRaMGcxCzAJBgNVBAYTAk5M
MRYwFAYDVQQIEw1Ob29yZC1Ib2xsYW5kMRQwEgYDVQQKEwtTU0FsbGV5V2FyZTEN
MAsGA1UECxMEdGVzdDEbMBkGA1UEAxMSU1NBbGxleVdhcmUgU2VydmVyMIICIjAN
BgkqhkiG9w0BAQEFAAOCAg8AMIICCgKCAgEAqVIgj7FGUKCPAwSsSVpfDEDmw+TP
pXfpv4b15MRZ11Cobi7KCoq4nADCzkoYrlGSim6Z2CqzGs/L0IvEM/sp9mtLEMOC
oYJXyKZRvptLhJMj/3KZJsiALrWVePZ3KkDP59XjSuqQGceU0xx+kTVemySB9pCw
rDu+2aV8/sJDrdGu8sVrroNnYRNtBRDhr4Y1i0KRh6pcLbhFgs6qcYCytCVUSRvw
TUZsqHcW5uBlJz1X5WXkR1WcAow6xIh2WwNYIeWlv1EeuJ2/RnY3vV8+w3eD0qoi
yJTisdgt0xbpRgPdKLCYa8gcKa2vzikm64BNAONhubV1fuwBAelDAuWhhqZB7VcE
a2vhL5NMZF5uMuAfD85weVE5qa37UBsci9ayQq4zn5HPMy01qrdlCVdx7CnRmR5h
sODiJY0OYVoc6/GXcSFauwIo8iiBKlA3UXTf0qSQtZA5Y1LnvFGqVrti0uVoop16
yiqLMVL4ImVioqkbD+meRa0ZpPg7QsnzTVjb/Blienlo9lrO4Fj2pWtplgcahHtn
UhE13ZtEiUCD12eqFh5yAnPWRwY5ksQR2td9fxhRVQfC7gl3xB6ik9lNE7jLKEKV
iqnz7wDpywMA1/xFrBDNDHNI+bSLaYfUhxEQ9X7+VPb3qHrFjFanMeFJBuYpmxKm
ORy1CYsJcUdGWI8CAwEAAaOB2jCB1zAdBgNVHQ4EFgQUpubp52SSWq+/z/ziVONp
MFPdoJgwgacGA1UdIwSBnzCBnIAUK5gRa1Jm49RAgYWnH0NyQKz6ZdahgYCkfjB8
MQswCQYDVQQGEwJOTDEWMBQGA1UECBMNTm9vcmQtSG9sbGFuZDESMBAGA1UEBxMJ
QW1zdGVyZGFtMRQwEgYDVQQKEwtTU0FsbGV5V2FyZTENMAsGA1UECxMEdGVzdDEc
MBoGA1UEAxMTU1NBbGxleVdhcmUgUm9vdCBDQYIBATAMBgNVHRMEBTADAQH/MA0G
CSqGSIb3DQEBBQUAA4ICAQBOy3gkpHZcroNMtTJnvijQRQL5R5o0hPrbyN88AW8k
lQuALzUPbgeV0c3U1/aETRFNH4S0RmUsfqxJW500cqA4dBzEvopD/6DjO2HYfrwS
Zs9C1DXZfbZdM8t9z+78OnSeNKBPn69vufBjCqWdu+6AaZchQ23TTj0nWgH36qQq
EtoQCHSsQSbeYJQxmt7FZPgIjQi7VeVrRVaOnknKTxkpbc9XCRCxGZS3tMf/iSPy
A3kabo92RYbzKm8IB7cZcfUH0yQglykdm3Lr/DqljxAV8JFxG8UjESpH9jZfYOSN
Qa1CjqohC30Ex5D6IQ3hYWTOIqDw6HhjjQJqsKPJO6OuUI4abjcjEXyAD0ZI/NJT
7dr7FPIAJuFs7Y/VoPfJGhtqICrrK06bqDYW09+6N8FyrDhIRQEuLszF3jBK3Uox
PKGf2dBxE8oGdijD0mnpBRwlLHOMNAWwup8T7C3fb2n1Tfxjk+HpCt6n93pejP2x
7mFdYqBjEcUBhM8WjEGj9lX7Nk/cme125NZ6kxBG6yya/JIuJhuBfVzHxfI6FdqT
j+Ox1nBCoMB7P3G/oMeCj7/6gfGyEDAaeNU19a3PMwydhY1cn+G2Doun97MKYL7A
By3zhuGQarRfXDZuY3Z9mdyyT7D4X+Pyx9jzh+SFqvbYGskR80qIgB7F9hShwb6T
+Q==
-----END CERTIFICATE-----
